target datalayout = "e-m:e-p270:32:32-p271:32:32-p272:64:64-i64:64-i128:128-f80:128-n8:16:32:64-S128"
target triple = "x86_64-pc-linux-gnu"

%"class.net::QuicDataWriter" = type { ptr, i64, i64 }

; Function Attrs: mustprogress nounwind uwtable
define linkonce_odr noundef i64 @_ZNK3net14QuicDataWriter6lengthEv(ptr noundef nonnull align 8 dereferenceable(24) %0) #1 comdat align 2 {
  %2 = alloca ptr, align 8
  store ptr %0, ptr %2, align 8, !tbaa !160
  %3 = load ptr, ptr %2, align 8
  %4 = getelementptr inbounds nuw %"class.net::QuicDataWriter", ptr %3, i32 0, i32 2
  %5 = load i64, ptr %4, align 8, !tbaa !241
  ret i64 %5
}

; Function Attrs: mustprogress nounwind uwtable
define linkonce_odr noundef i64 @_ZNK3net14QuicDataWriter8capacityEv(ptr noundef nonnull align 8 dereferenceable(24) %0) #1 comdat align 2 {
  %2 = alloca ptr, align 8
  store ptr %0, ptr %2, align 8, !tbaa !160
  %3 = load ptr, ptr %2, align 8
  %4 = getelementptr inbounds nuw %"class.net::QuicDataWriter", ptr %3, i32 0, i32 1
  %5 = load i64, ptr %4, align 8, !tbaa !369
  ret i64 %5
}

; Function Attrs: mustprogress uwtable
define noundef zeroext i1 @_ZN3net10QuicFramer26AppendPacketSequenceNumberENS_22QuicPacketNumberLengthEmPNS_14QuicDataWriterE(i8 noundef signext %0, i64 noundef %1, ptr noundef %2) #0 align 2 {
  %4 = alloca i1, align 1
  %5 = alloca i8, align 1
  %6 = alloca i64, align 8
  %7 = alloca ptr, align 8
  store i8 %0, ptr %5, align 1, !tbaa !92
  store i64 %1, ptr %6, align 8, !tbaa !63
  store ptr %2, ptr %7, align 8, !tbaa !160
  %8 = load ptr, ptr %7, align 8, !tbaa !160
  %9 = call noundef i64 @_ZNK3net14QuicDataWriter8capacityEv(ptr noundef nonnull align 8 dereferenceable(24) %8)
  %10 = load ptr, ptr %7, align 8, !tbaa !160
  %11 = call noundef i64 @_ZNK3net14QuicDataWriter6lengthEv(ptr noundef nonnull align 8 dereferenceable(24) %10)
  %12 = sub i64 %9, %11
  %13 = load i8, ptr %5, align 1, !tbaa !92
  %14 = sext i8 %13 to i64
  %15 = icmp ult i64 %12, %14
  br i1 %15, label %16, label %17

16:                                               ; preds = %3
  store i1 false, ptr %4, align 1
  br label %44

17:                                               ; preds = %3
  %18 = load i8, ptr %5, align 1, !tbaa !92
  %19 = sext i8 %18 to i32
  switch i32 %19, label %43 [
    i32 1, label %20
    i32 2, label %26
    i32 4, label %32
    i32 6, label %38
  ]

20:                                               ; preds = %17
  %21 = load ptr, ptr %7, align 8, !tbaa !160
  %22 = load i64, ptr %6, align 8, !tbaa !63
  %23 = and i64 %22, 255
  %24 = trunc i64 %23 to i8
  %25 = call noundef zeroext i1 @_ZN3net14QuicDataWriter10WriteUInt8Eh(ptr noundef nonnull align 8 dereferenceable(24) %21, i8 noundef zeroext %24)
  store i1 %25, ptr %4, align 1
  br label %44

26:                                               ; preds = %17
  %27 = load ptr, ptr %7, align 8, !tbaa !160
  %28 = load i64, ptr %6, align 8, !tbaa !63
  %29 = and i64 %28, 65535
  %30 = trunc i64 %29 to i16
  %31 = call noundef zeroext i1 @_ZN3net14QuicDataWriter11WriteUInt16Et(ptr noundef nonnull align 8 dereferenceable(24) %27, i16 noundef zeroext %30)
  store i1 %31, ptr %4, align 1
  br label %44

32:                                               ; preds = %17
  %33 = load ptr, ptr %7, align 8, !tbaa !160
  %34 = load i64, ptr %6, align 8, !tbaa !63
  %35 = and i64 %34, 4294967295
  %36 = trunc i64 %35 to i32
  %37 = call noundef zeroext i1 @_ZN3net14QuicDataWriter11WriteUInt32Ej(ptr noundef nonnull align 8 dereferenceable(24) %33, i32 noundef %36)
  store i1 %37, ptr %4, align 1
  br label %44

38:                                               ; preds = %17
  %39 = load ptr, ptr %7, align 8, !tbaa !160
  %40 = load i64, ptr %6, align 8, !tbaa !63
  %41 = and i64 %40, 281474976710655
  %42 = call noundef zeroext i1 @_ZN3net14QuicDataWriter11WriteUInt48Em(ptr noundef nonnull align 8 dereferenceable(24) %39, i64 noundef %41)
  store i1 %42, ptr %4, align 1
  br label %44

43:                                               ; preds = %17
  store i1 false, ptr %4, align 1
  br label %44

44:                                               ; preds = %43, %38, %32, %26, %20, %16
  %45 = load i1, ptr %4, align 1
  ret i1 %45
}