; Function Attrs: mustprogress uwtable
define noundef zeroext i1 @_ZN3net10QuicFramer26AppendPacketSequenceNumberENS_22QuicPacketNumberLengthEmPNS_14QuicDataWriterE(i8 noundef signext %0, i64 noundef %1, ptr noundef %2) local_unnamed_addr #0 align 2 {
  %4 = getelementptr inbounds nuw i8, ptr %2, i64 8
  %5 = load i64, ptr %4, align 8, !tbaa !177
  %6 = getelementptr inbounds nuw i8, ptr %2, i64 16
  %7 = load i64, ptr %6, align 8, !tbaa !166
  %8 = sub i64 %5, %7
  %9 = sext i8 %0 to i64
  %10 = icmp ult i64 %8, %9
  br i1 %10, label %24, label %11

11:                                               ; preds = %3
  switch i8 %0, label %24 [
    i8 1, label %12
    i8 2, label %15
    i8 4, label %18
    i8 6, label %21
  ]

12:                                               ; preds = %11
  %13 = trunc i64 %1 to i8
  %14 = tail call noundef zeroext i1 @_ZN3net14QuicDataWriter10WriteUInt8Eh(ptr noundef nonnull align 8 dereferenceable(24) %2, i8 noundef zeroext %13)
  br label %24

15:                                               ; preds = %11
  %16 = trunc i64 %1 to i16
  %17 = tail call noundef zeroext i1 @_ZN3net14QuicDataWriter11WriteUInt16Et(ptr noundef nonnull align 8 dereferenceable(24) %2, i16 noundef zeroext %16)
  br label %24

18:                                               ; preds = %11
  %19 = trunc i64 %1 to i32
  %20 = tail call noundef zeroext i1 @_ZN3net14QuicDataWriter11WriteUInt32Ej(ptr noundef nonnull align 8 dereferenceable(24) %2, i32 noundef %19)
  br label %24

21:                                               ; preds = %11
  %22 = and i64 %1, 281474976710655
  %23 = tail call noundef zeroext i1 @_ZN3net14QuicDataWriter11WriteUInt48Em(ptr noundef nonnull align 8 dereferenceable(24) %2, i64 noundef %22)
  br label %24

24:                                               ; preds = %11, %3, %21, %18, %15, %12
  %.0 = phi i1 [ %23, %21 ], [ %20, %18 ], [ %17, %15 ], [ %14, %12 ], [ false, %3 ], [ false, %11 ]
  ret i1 %.0
}